target datalayout = "e-m:e-p270:32:32-p271:32:32-p272:64:64-i64:64-i128:128-f80:128-n8:16:32:64-S128"
target triple = "x86_64-pc-linux-gnu"

%struct.b2Vec2 = type { float, float }
%struct.b2Filter = type { i64, i64, i32 }
%struct.b2Shape = type { i32, i32, i32, i32, i32, i32, float, float, float, float, float, i32, %struct.b2AABB, %struct.b2AABB, %struct.b2Vec2, i32, %struct.b2Filter, ptr, i32, %union.anon.0, i16, i8, i8, i8, i8 }
%struct.b2AABB = type { %struct.b2Vec2, %struct.b2Vec2 }
%union.anon.0 = type { %struct.b2Polygon }
%struct.b2Polygon = type { [8 x %struct.b2Vec2], [8 x %struct.b2Vec2], %struct.b2Vec2, float, i32 }
%struct.b2Circle = type { %struct.b2Vec2, float }
%struct.b2Capsule = type { %struct.b2Vec2, %struct.b2Vec2, float }
%struct.b2Segment = type { %struct.b2Vec2, %struct.b2Vec2 }
%struct.b2ChainSegment = type { %struct.b2Vec2, %struct.b2Segment, %struct.b2Vec2, i32 }
%struct.b2ShapeProxy = type { [8 x %struct.b2Vec2], i32, float }

; Function Attrs: nounwind uwtable
define hidden void @b2MakeShapeDistanceProxy(ptr dead_on_unwind noalias writable sret(%struct.b2ShapeProxy) align 4 %0, ptr noundef %1) #0 {
  %3 = alloca ptr, align 8
  store ptr %1, ptr %3, align 8, !tbaa !34
  %4 = load ptr, ptr %3, align 8, !tbaa !34
  %5 = getelementptr inbounds nuw %struct.b2Shape, ptr %4, i32 0, i32 5
  %6 = load i32, ptr %5, align 4, !tbaa !201
  switch i32 %6, label %45 [
    i32 1, label %7
    i32 0, label %15
    i32 3, label %23
    i32 2, label %36
    i32 4, label %40
  ]

7:                                                ; preds = %2
  %8 = load ptr, ptr %3, align 8, !tbaa !34
  %9 = getelementptr inbounds nuw %struct.b2Shape, ptr %8, i32 0, i32 19
  %10 = getelementptr inbounds nuw %struct.b2Capsule, ptr %9, i32 0, i32 0
  %11 = load ptr, ptr %3, align 8, !tbaa !34
  %12 = getelementptr inbounds nuw %struct.b2Shape, ptr %11, i32 0, i32 19
  %13 = getelementptr inbounds nuw %struct.b2Capsule, ptr %12, i32 0, i32 2
  %14 = load float, ptr %13, align 4, !tbaa !198
  call void @b2MakeProxy(ptr dead_on_unwind writable sret(%struct.b2ShapeProxy) align 4 %0, ptr noundef %10, i32 noundef 2, float noundef %14)
  br label %46

15:                                               ; preds = %2
  %16 = load ptr, ptr %3, align 8, !tbaa !34
  %17 = getelementptr inbounds nuw %struct.b2Shape, ptr %16, i32 0, i32 19
  %18 = getelementptr inbounds nuw %struct.b2Circle, ptr %17, i32 0, i32 0
  %19 = load ptr, ptr %3, align 8, !tbaa !34
  %20 = getelementptr inbounds nuw %struct.b2Shape, ptr %19, i32 0, i32 19
  %21 = getelementptr inbounds nuw %struct.b2Circle, ptr %20, i32 0, i32 1
  %22 = load float, ptr %21, align 4, !tbaa !198
  call void @b2MakeProxy(ptr dead_on_unwind writable sret(%struct.b2ShapeProxy) align 4 %0, ptr noundef %18, i32 noundef 1, float noundef %22)
  br label %46

23:                                               ; preds = %2
  %24 = load ptr, ptr %3, align 8, !tbaa !34
  %25 = getelementptr inbounds nuw %struct.b2Shape, ptr %24, i32 0, i32 19
  %26 = getelementptr inbounds nuw %struct.b2Polygon, ptr %25, i32 0, i32 0
  %27 = getelementptr inbounds [8 x %struct.b2Vec2], ptr %26, i64 0, i64 0
  %28 = load ptr, ptr %3, align 8, !tbaa !34
  %29 = getelementptr inbounds nuw %struct.b2Shape, ptr %28, i32 0, i32 19
  %30 = getelementptr inbounds nuw %struct.b2Polygon, ptr %29, i32 0, i32 4
  %31 = load i32, ptr %30, align 4, !tbaa !198
  %32 = load ptr, ptr %3, align 8, !tbaa !34
  %33 = getelementptr inbounds nuw %struct.b2Shape, ptr %32, i32 0, i32 19
  %34 = getelementptr inbounds nuw %struct.b2Polygon, ptr %33, i32 0, i32 3
  %35 = load float, ptr %34, align 4, !tbaa !198
  call void @b2MakeProxy(ptr dead_on_unwind writable sret(%struct.b2ShapeProxy) align 4 %0, ptr noundef %27, i32 noundef %31, float noundef %35)
  br label %46

36:                                               ; preds = %2
  %37 = load ptr, ptr %3, align 8, !tbaa !34
  %38 = getelementptr inbounds nuw %struct.b2Shape, ptr %37, i32 0, i32 19
  %39 = getelementptr inbounds nuw %struct.b2Segment, ptr %38, i32 0, i32 0
  call void @b2MakeProxy(ptr dead_on_unwind writable sret(%struct.b2ShapeProxy) align 4 %0, ptr noundef %39, i32 noundef 2, float noundef 0.000000e+00)
  br label %46

40:                                               ; preds = %2
  %41 = load ptr, ptr %3, align 8, !tbaa !34
  %42 = getelementptr inbounds nuw %struct.b2Shape, ptr %41, i32 0, i32 19
  %43 = getelementptr inbounds nuw %struct.b2ChainSegment, ptr %42, i32 0, i32 1
  %44 = getelementptr inbounds nuw %struct.b2Segment, ptr %43, i32 0, i32 0
  call void @b2MakeProxy(ptr dead_on_unwind writable sret(%struct.b2ShapeProxy) align 4 %0, ptr noundef %44, i32 noundef 2, float noundef 0.000000e+00)
  br label %46

45:                                               ; preds = %2
  call void @llvm.memset.p0.i64(ptr align 4 %0, i8 0, i64 72, i1 false)
  br label %46

46:                                               ; preds = %45, %40, %36, %23, %15, %7
  ret void
}