; Function Attrs: nounwind uwtable
define hidden void @b2MakeShapeDistanceProxy(ptr dead_on_unwind noalias writable sret(%struct.b2ShapeProxy) align 4 %0, ptr noundef %1) local_unnamed_addr #0 {
  %3 = getelementptr inbounds nuw i8, ptr %1, i64 20
  %4 = load i32, ptr %3, align 4, !tbaa !171
  switch i32 %4, label %23 [
    i32 1, label %5
    i32 0, label %9
    i32 3, label %13
    i32 2, label %19
    i32 4, label %21
  ]

5:                                                ; preds = %2
  %6 = getelementptr inbounds nuw i8, ptr %1, i64 132
  %7 = getelementptr inbounds nuw i8, ptr %1, i64 148
  %8 = load float, ptr %7, align 4, !tbaa !168
  tail call void @b2MakeProxy(ptr dead_on_unwind writable sret(%struct.b2ShapeProxy) align 4 %0, ptr noundef nonnull %6, i32 noundef 2, float noundef %8) #10
  br label %24

9:                                                ; preds = %2
  %10 = getelementptr inbounds nuw i8, ptr %1, i64 132
  %11 = getelementptr inbounds nuw i8, ptr %1, i64 140
  %12 = load float, ptr %11, align 4, !tbaa !168
  tail call void @b2MakeProxy(ptr dead_on_unwind writable sret(%struct.b2ShapeProxy) align 4 %0, ptr noundef nonnull %10, i32 noundef 1, float noundef %12) #10
  br label %24

13:                                               ; preds = %2
  %14 = getelementptr inbounds nuw i8, ptr %1, i64 132
  %15 = getelementptr inbounds nuw i8, ptr %1, i64 272
  %16 = load i32, ptr %15, align 4, !tbaa !168
  %17 = getelementptr inbounds nuw i8, ptr %1, i64 268
  %18 = load float, ptr %17, align 4, !tbaa !168
  tail call void @b2MakeProxy(ptr dead_on_unwind writable sret(%struct.b2ShapeProxy) align 4 %0, ptr noundef nonnull %14, i32 noundef %16, float noundef %18) #10
  br label %24

19:                                               ; preds = %2
  %20 = getelementptr inbounds nuw i8, ptr %1, i64 132
  tail call void @b2MakeProxy(ptr dead_on_unwind writable sret(%struct.b2ShapeProxy) align 4 %0, ptr noundef nonnull %20, i32 noundef 2, float noundef 0.000000e+00) #10
  br label %24

21:                                               ; preds = %2
  %22 = getelementptr inbounds nuw i8, ptr %1, i64 140
  tail call void @b2MakeProxy(ptr dead_on_unwind writable sret(%struct.b2ShapeProxy) align 4 %0, ptr noundef nonnull %22, i32 noundef 2, float noundef 0.000000e+00) #10
  br label %24

23:                                               ; preds = %2
  tail call void @llvm.memset.p0.i64(ptr noundef nonnull align 4 dereferenceable(72) %0, i8 0, i64 72, i1 false)
  br label %24

24:                                               ; preds = %23, %21, %19, %13, %9, %5
  ret void
}